target datalayout = "e-m:e-p270:32:32-p271:32:32-p272:64:64-i64:64-i128:128-f80:128-n8:16:32:64-S128"
target triple = "x86_64-pc-linux-gnu"

%struct.Bmcg_Man_t_ = type { ptr, ptr, ptr, ptr, %struct.Vec_Ptr_t_, %struct.Vec_Int_t_, %struct.Vec_Int_t_, [100 x ptr], i32, i32, i32, i32, i64, i64, i64, i64, i64 }
%struct.Vec_Ptr_t_ = type { i32, i32, ptr }
%struct.Vec_Int_t_ = type { i32, i32, ptr }
%struct.Bmc_AndPar_t_ = type { i32, i32, i32, i32, i32, i32, i32, i32, i32, i32, i32, i32, i32, i32, i32, i32, i32, i32, i32, ptr }
%struct.timespec = type { i64, i64 }

@.str = private unnamed_addr constant [10 x i8] c"%4d %s : \00", align 1
@.str.1 = private unnamed_addr constant [2 x i8] c"-\00", align 1
@.str.2 = private unnamed_addr constant [2 x i8] c"+\00", align 1
@.str.3 = private unnamed_addr constant [14 x i8] c"Var =%8.0f.  \00", align 1
@.str.4 = private unnamed_addr constant [14 x i8] c"Cla =%9.0f.  \00", align 1
@.str.5 = private unnamed_addr constant [16 x i8] c"Learn =%9.0f.  \00", align 1
@.str.6 = private unnamed_addr constant [15 x i8] c"Conf =%9.0f.  \00", align 1
@.str.7 = private unnamed_addr constant [10 x i8] c"S = %3d. \00", align 1
@.str.8 = private unnamed_addr constant [9 x i8] c"%4.0f MB\00", align 1
@.str.9 = private unnamed_addr constant [12 x i8] c"%9.2f sec  \00", align 1
@.str.10 = private unnamed_addr constant [2 x i8] c"\0A\00", align 1
@stdout = external global ptr, align 8

; Function Attrs: inlinehint nounwind uwtable
define internal i64 @Abc_Clock() #3 {
  %1 = alloca i64, align 8
  %2 = alloca %struct.timespec, align 8
  %3 = alloca i32, align 4
  %4 = alloca i64, align 8
  call void @llvm.lifetime.start.p0(i64 16, ptr %2) #13
  %5 = call i32 @clock_gettime(i32 noundef 1, ptr noundef %2) #13
  %6 = icmp slt i32 %5, 0
  br i1 %6, label %7, label %8

7:                                                ; preds = %0
  store i64 -1, ptr %1, align 8
  store i32 1, ptr %3, align 4
  br label %19

8:                                                ; preds = %0
  call void @llvm.lifetime.start.p0(i64 8, ptr %4) #13
  %9 = getelementptr inbounds nuw %struct.timespec, ptr %2, i32 0, i32 0
  %10 = load i64, ptr %9, align 8, !tbaa !121
  %11 = mul nsw i64 %10, 1000000
  store i64 %11, ptr %4, align 8, !tbaa !74
  %12 = getelementptr inbounds nuw %struct.timespec, ptr %2, i32 0, i32 1
  %13 = load i64, ptr %12, align 8, !tbaa !123
  %14 = mul nsw i64 %13, 1000000
  %15 = sdiv i64 %14, 1000000000
  %16 = load i64, ptr %4, align 8, !tbaa !74
  %17 = add nsw i64 %16, %15
  store i64 %17, ptr %4, align 8, !tbaa !74
  %18 = load i64, ptr %4, align 8, !tbaa !74
  store i64 %18, ptr %1, align 8
  store i32 1, ptr %3, align 4
  call void @llvm.lifetime.end.p0(i64 8, ptr %4) #13
  br label %19

19:                                               ; preds = %8, %7
  call void @llvm.lifetime.end.p0(i64 16, ptr %2) #13
  %20 = load i64, ptr %1, align 8
  ret i64 %20
}

; Function Attrs: inlinehint nounwind uwtable
define internal double @Vec_IntMemory(ptr noundef %0) #3 {
  %2 = alloca ptr, align 8
  store ptr %0, ptr %2, align 8, !tbaa !49
  %3 = load ptr, ptr %2, align 8, !tbaa !49
  %4 = icmp ne ptr %3, null
  br i1 %4, label %6, label %5

5:                                                ; preds = %1
  br label %13

6:                                                ; preds = %1
  %7 = load ptr, ptr %2, align 8, !tbaa !49
  %8 = getelementptr inbounds nuw %struct.Vec_Int_t_, ptr %7, i32 0, i32 0
  %9 = load i32, ptr %8, align 8, !tbaa !50
  %10 = sext i32 %9 to i64
  %11 = uitofp i64 %10 to double
  %12 = call double @llvm.fmuladd.f64(double 4.000000e+00, double %11, double 1.600000e+01)
  br label %13

13:                                               ; preds = %6, %5
  %14 = phi double [ 0.000000e+00, %5 ], [ %12, %6 ]
  ret double %14
}

; Function Attrs: nounwind uwtable
define void @Bmcg_ManPrintFrame(ptr noundef %0, i32 noundef %1, i32 noundef %2, i32 noundef %3, i64 noundef %4) #0 {
  %6 = alloca ptr, align 8
  %7 = alloca i32, align 4
  %8 = alloca i32, align 4
  %9 = alloca i32, align 4
  %10 = alloca i64, align 8
  %11 = alloca i32, align 4
  %12 = alloca i32, align 4
  store ptr %0, ptr %6, align 8, !tbaa !10
  store i32 %1, ptr %7, align 4, !tbaa !12
  store i32 %2, ptr %8, align 4, !tbaa !12
  store i32 %3, ptr %9, align 4, !tbaa !12
  store i64 %4, ptr %10, align 8, !tbaa !74
  call void @llvm.lifetime.start.p0(i64 4, ptr %11) #13
  store i32 0, ptr %11, align 4, !tbaa !12
  %13 = load ptr, ptr %6, align 8, !tbaa !10
  %14 = getelementptr inbounds nuw %struct.Bmcg_Man_t_, ptr %13, i32 0, i32 0
  %15 = load ptr, ptr %14, align 8, !tbaa !14
  %16 = getelementptr inbounds nuw %struct.Bmc_AndPar_t_, ptr %15, i32 0, i32 13
  %17 = load i32, ptr %16, align 4, !tbaa !87
  %18 = icmp ne i32 %17, 0
  br i1 %18, label %20, label %19

19:                                               ; preds = %5
  store i32 1, ptr %12, align 4
  br label %85

20:                                               ; preds = %5
  %21 = load i32, ptr %7, align 4, !tbaa !12
  %22 = load i32, ptr %11, align 4, !tbaa !12
  %23 = icmp ne i32 %22, 0
  %24 = select i1 %23, ptr @.str.1, ptr @.str.2
  call void (i32, ptr, ...) @Abc_Print(i32 noundef 1, ptr noundef @.str, i32 noundef %21, ptr noundef %24)
  %25 = load ptr, ptr %6, align 8, !tbaa !10
  %26 = getelementptr inbounds nuw %struct.Bmcg_Man_t_, ptr %25, i32 0, i32 7
  %27 = getelementptr inbounds [100 x ptr], ptr %26, i64 0, i64 0
  %28 = load ptr, ptr %27, align 8, !tbaa !25
  %29 = call i32 @bmcg_sat_solver_varnum(ptr noundef %28)
  %30 = load ptr, ptr %6, align 8, !tbaa !10
  %31 = getelementptr inbounds nuw %struct.Bmcg_Man_t_, ptr %30, i32 0, i32 7
  %32 = getelementptr inbounds [100 x ptr], ptr %31, i64 0, i64 0
  %33 = load ptr, ptr %32, align 8, !tbaa !25
  %34 = call i32 @bmcg_sat_solver_elim_varnum(ptr noundef %33)
  %35 = sub nsw i32 %29, %34
  %36 = sitofp i32 %35 to double
  call void (i32, ptr, ...) @Abc_Print(i32 noundef 1, ptr noundef @.str.3, double noundef %36)
  %37 = load ptr, ptr %6, align 8, !tbaa !10
  %38 = getelementptr inbounds nuw %struct.Bmcg_Man_t_, ptr %37, i32 0, i32 7
  %39 = getelementptr inbounds [100 x ptr], ptr %38, i64 0, i64 0
  %40 = load ptr, ptr %39, align 8, !tbaa !25
  %41 = call i32 @bmcg_sat_solver_clausenum(ptr noundef %40)
  %42 = sitofp i32 %41 to double
  call void (i32, ptr, ...) @Abc_Print(i32 noundef 1, ptr noundef @.str.4, double noundef %42)
  %43 = load ptr, ptr %6, align 8, !tbaa !10
  %44 = getelementptr inbounds nuw %struct.Bmcg_Man_t_, ptr %43, i32 0, i32 7
  %45 = getelementptr inbounds [100 x ptr], ptr %44, i64 0, i64 0
  %46 = load ptr, ptr %45, align 8, !tbaa !25
  %47 = call i32 @bmcg_sat_solver_learntnum(ptr noundef %46)
  %48 = sitofp i32 %47 to double
  call void (i32, ptr, ...) @Abc_Print(i32 noundef 1, ptr noundef @.str.5, double noundef %48)
  %49 = load ptr, ptr %6, align 8, !tbaa !10
  %50 = getelementptr inbounds nuw %struct.Bmcg_Man_t_, ptr %49, i32 0, i32 7
  %51 = getelementptr inbounds [100 x ptr], ptr %50, i64 0, i64 0
  %52 = load ptr, ptr %51, align 8, !tbaa !25
  %53 = call i32 @bmcg_sat_solver_conflictnum(ptr noundef %52)
  %54 = sitofp i32 %53 to double
  call void (i32, ptr, ...) @Abc_Print(i32 noundef 1, ptr noundef @.str.6, double noundef %54)
  %55 = load ptr, ptr %6, align 8, !tbaa !10
  %56 = getelementptr inbounds nuw %struct.Bmcg_Man_t_, ptr %55, i32 0, i32 0
  %57 = load ptr, ptr %56, align 8, !tbaa !14
  %58 = getelementptr inbounds nuw %struct.Bmc_AndPar_t_, ptr %57, i32 0, i32 6
  %59 = load i32, ptr %58, align 8, !tbaa !23
  %60 = icmp sgt i32 %59, 1
  br i1 %60, label %61, label %63

61:                                               ; preds = %20
  %62 = load i32, ptr %9, align 4, !tbaa !12
  call void (i32, ptr, ...) @Abc_Print(i32 noundef 1, ptr noundef @.str.7, i32 noundef %62)
  br label %63

63:                                               ; preds = %61, %20
  %64 = load ptr, ptr %6, align 8, !tbaa !10
  %65 = getelementptr inbounds nuw %struct.Bmcg_Man_t_, ptr %64, i32 0, i32 2
  %66 = load ptr, ptr %65, align 8, !tbaa !21
  %67 = call double @Gia_ManMemory(ptr noundef %66)
  %68 = fptosi double %67 to i32
  %69 = sitofp i32 %68 to double
  %70 = load ptr, ptr %6, align 8, !tbaa !10
  %71 = getelementptr inbounds nuw %struct.Bmcg_Man_t_, ptr %70, i32 0, i32 5
  %72 = call double @Vec_IntMemory(ptr noundef %71)
  %73 = fadd double %69, %72
  %74 = fmul double 1.000000e+00, %73
  %75 = fdiv double %74, 0x4130000000000000
  call void (i32, ptr, ...) @Abc_Print(i32 noundef 1, ptr noundef @.str.8, double noundef %75)
  %76 = call i64 @Abc_Clock()
  %77 = load i64, ptr %10, align 8, !tbaa !74
  %78 = sub nsw i64 %76, %77
  %79 = sitofp i64 %78 to float
  %80 = fdiv float %79, 1.000000e+06
  %81 = fpext float %80 to double
  call void (i32, ptr, ...) @Abc_Print(i32 noundef 1, ptr noundef @.str.9, double noundef %81)
  %82 = call i32 (ptr, ...) @printf(ptr noundef @.str.10)
  %83 = load ptr, ptr @stdout, align 8, !tbaa !88
  %84 = call i32 @fflush(ptr noundef %83)
  store i32 0, ptr %12, align 4
  br label %85

85:                                               ; preds = %63, %19
  call void @llvm.lifetime.end.p0(i64 4, ptr %11) #13
  %86 = load i32, ptr %12, align 4
  switch i32 %86, label %88 [
    i32 0, label %87
    i32 1, label %87
  ]

87:                                               ; preds = %85, %85
  ret void

88:                                               ; preds = %85
  unreachable
}