; Function Attrs: nounwind uwtable
define void @Bmcg_ManPrintFrame(ptr noundef readonly captures(none) %0, i32 noundef %1, i32 %2, i32 noundef %3, i64 noundef %4) local_unnamed_addr #0 {
  %6 = alloca %struct.timespec, align 8
  %7 = load ptr, ptr %0, align 8, !tbaa !7
  %8 = getelementptr inbounds nuw i8, ptr %7, i64 52
  %9 = load i32, ptr %8, align 4, !tbaa !79
  %.not = icmp eq i32 %9, 0
  br i1 %.not, label %60, label %10

10:                                               ; preds = %5
  tail call void (i32, ptr, ...) @Abc_Print(i32 poison, ptr noundef nonnull @.str, i32 noundef %1, ptr noundef nonnull @.str.2)
  %11 = getelementptr inbounds nuw i8, ptr %0, i64 80
  %12 = load ptr, ptr %11, align 8, !tbaa !43
  %13 = tail call i32 @bmcg_sat_solver_varnum(ptr noundef %12) #18
  %14 = load ptr, ptr %11, align 8, !tbaa !43
  %15 = tail call i32 @bmcg_sat_solver_elim_varnum(ptr noundef %14) #18
  %16 = sub nsw i32 %13, %15
  %17 = sitofp i32 %16 to double
  tail call void (i32, ptr, ...) @Abc_Print(i32 poison, ptr noundef nonnull @.str.3, double noundef %17)
  %18 = load ptr, ptr %11, align 8, !tbaa !43
  %19 = tail call i32 @bmcg_sat_solver_clausenum(ptr noundef %18) #18
  %20 = sitofp i32 %19 to double
  tail call void (i32, ptr, ...) @Abc_Print(i32 poison, ptr noundef nonnull @.str.4, double noundef %20)
  %21 = load ptr, ptr %11, align 8, !tbaa !43
  %22 = tail call i32 @bmcg_sat_solver_learntnum(ptr noundef %21) #18
  %23 = sitofp i32 %22 to double
  tail call void (i32, ptr, ...) @Abc_Print(i32 poison, ptr noundef nonnull @.str.5, double noundef %23)
  %24 = load ptr, ptr %11, align 8, !tbaa !43
  %25 = tail call i32 @bmcg_sat_solver_conflictnum(ptr noundef %24) #18
  %26 = sitofp i32 %25 to double
  tail call void (i32, ptr, ...) @Abc_Print(i32 poison, ptr noundef nonnull @.str.6, double noundef %26)
  %27 = load ptr, ptr %0, align 8, !tbaa !7
  %28 = getelementptr inbounds nuw i8, ptr %27, i64 24
  %29 = load i32, ptr %28, align 8, !tbaa !41
  %30 = icmp sgt i32 %29, 1
  br i1 %30, label %31, label %32

31:                                               ; preds = %10
  tail call void (i32, ptr, ...) @Abc_Print(i32 poison, ptr noundef nonnull @.str.7, i32 noundef %3)
  br label %32

32:                                               ; preds = %31, %10
  %33 = getelementptr inbounds nuw i8, ptr %0, i64 16
  %34 = load ptr, ptr %33, align 8, !tbaa !34
  %35 = tail call double @Gia_ManMemory(ptr noundef %34) #18
  %36 = fptosi double %35 to i32
  %37 = sitofp i32 %36 to double
  %38 = getelementptr inbounds nuw i8, ptr %0, i64 48
  %39 = load i32, ptr %38, align 8, !tbaa !40
  %40 = sext i32 %39 to i64
  %41 = uitofp i64 %40 to double
  %42 = tail call double @llvm.fmuladd.f64(double %41, double 4.000000e+00, double 1.600000e+01)
  %43 = fadd double %42, %37
  %44 = fmul double %43, 0x3EB0000000000000
  tail call void (i32, ptr, ...) @Abc_Print(i32 poison, ptr noundef nonnull @.str.8, double noundef %44)
  call void @llvm.lifetime.start.p0(i64 16, ptr nonnull %6) #18
  %45 = call i32 @clock_gettime(i32 noundef 1, ptr noundef nonnull %6) #18
  %46 = icmp slt i32 %45, 0
  br i1 %46, label %Abc_Clock.exit, label %47

47:                                               ; preds = %32
  %48 = load i64, ptr %6, align 8, !tbaa !65
  %49 = mul nsw i64 %48, 1000000
  %50 = getelementptr inbounds nuw i8, ptr %6, i64 8
  %51 = load i64, ptr %50, align 8, !tbaa !67
  %52 = sdiv i64 %51, 1000
  %53 = add nsw i64 %52, %49
  br label %Abc_Clock.exit

Abc_Clock.exit:                                   ; preds = %32, %47
  %.0.i = phi i64 [ %53, %47 ], [ -1, %32 ]
  call void @llvm.lifetime.end.p0(i64 16, ptr nonnull %6) #18
  %54 = sub nsw i64 %.0.i, %4
  %55 = sitofp i64 %54 to float
  %56 = fdiv float %55, 1.000000e+06
  %57 = fpext float %56 to double
  call void (i32, ptr, ...) @Abc_Print(i32 poison, ptr noundef nonnull @.str.9, double noundef %57)
  %putchar = call i32 @putchar(i32 10)
  %58 = load ptr, ptr @stdout, align 8, !tbaa !80
  %59 = call i32 @fflush(ptr noundef %58)
  br label %60

60:                                               ; preds = %5, %Abc_Clock.exit
  ret void
}